; Function Attrs: nounwind uwtable
define ptr @l_ReaderT_instApplicativeOfMonad___rarg___lambda__4(ptr noundef %0, ptr readnone captures(none) %1, ptr readnone captures(none) %2, ptr noundef %3, ptr noundef %4, ptr noundef %5) #0 {
  %7 = getelementptr inbounds nuw i8, ptr %0, i64 8
  %8 = load ptr, ptr %7, align 8, !tbaa !10
  %9 = ptrtoint ptr %8 to i64
  %10 = and i64 %9, 1
  %.not = icmp eq i64 %10, 0
  br i1 %.not, label %11, label %lean_inc.exit18

11:                                               ; preds = %6
  %.val.i = load i32, ptr %8, align 4, !tbaa !4
  %12 = icmp sgt i32 %.val.i, 0
  br i1 %12, label %13, label %15, !prof !9

13:                                               ; preds = %11
  %14 = add nuw i32 %.val.i, 1
  store i32 %14, ptr %8, align 4, !tbaa !4
  br label %lean_inc.exit18

15:                                               ; preds = %11
  %.not.i22 = icmp eq i32 %.val.i, 0
  br i1 %.not.i22, label %lean_inc.exit18, label %16

16:                                               ; preds = %15
  tail call void @lean_inc_ref_cold(ptr noundef nonnull %8) #11
  br label %lean_inc.exit18

lean_inc.exit18:                                  ; preds = %16, %15, %13, %6
  %17 = ptrtoint ptr %0 to i64
  %18 = and i64 %17, 1
  %.not29 = icmp eq i64 %18, 0
  br i1 %.not29, label %19, label %lean_dec.exit19

19:                                               ; preds = %lean_inc.exit18
  %20 = load i32, ptr %0, align 4, !tbaa !4
  %21 = icmp sgt i32 %20, 1
  br i1 %21, label %22, label %24, !prof !9

22:                                               ; preds = %19
  %23 = add nsw i32 %20, -1
  store i32 %23, ptr %0, align 4, !tbaa !4
  br label %lean_dec.exit19

24:                                               ; preds = %19
  %.not.i = icmp eq i32 %20, 0
  br i1 %.not.i, label %lean_dec.exit19, label %25

25:                                               ; preds = %24
  tail call void @lean_dec_ref_cold(ptr noundef nonnull %0) #11
  br label %lean_dec.exit19

lean_dec.exit19:                                  ; preds = %25, %24, %22, %lean_inc.exit18
  %26 = getelementptr inbounds nuw i8, ptr %8, i64 40
  %27 = load ptr, ptr %26, align 8, !tbaa !10
  %28 = ptrtoint ptr %27 to i64
  %29 = and i64 %28, 1
  %.not30 = icmp eq i64 %29, 0
  br i1 %.not30, label %30, label %lean_inc.exit17

30:                                               ; preds = %lean_dec.exit19
  %.val.i23 = load i32, ptr %27, align 4, !tbaa !4
  %31 = icmp sgt i32 %.val.i23, 0
  br i1 %31, label %32, label %34, !prof !9

32:                                               ; preds = %30
  %33 = add nuw i32 %.val.i23, 1
  store i32 %33, ptr %27, align 4, !tbaa !4
  br label %lean_inc.exit17

34:                                               ; preds = %30
  %.not.i24 = icmp eq i32 %.val.i23, 0
  br i1 %.not.i24, label %lean_inc.exit17, label %35

35:                                               ; preds = %34
  tail call void @lean_inc_ref_cold(ptr noundef nonnull %27) #11
  br label %lean_inc.exit17

lean_inc.exit17:                                  ; preds = %35, %34, %32, %lean_dec.exit19
  br i1 %.not, label %36, label %lean_dec.exit

36:                                               ; preds = %lean_inc.exit17
  %37 = load i32, ptr %8, align 4, !tbaa !4
  %38 = icmp sgt i32 %37, 1
  br i1 %38, label %39, label %41, !prof !9

39:                                               ; preds = %36
  %40 = add nsw i32 %37, -1
  store i32 %40, ptr %8, align 4, !tbaa !4
  br label %lean_dec.exit

41:                                               ; preds = %36
  %.not.i20 = icmp eq i32 %37, 0
  br i1 %.not.i20, label %lean_dec.exit, label %42

42:                                               ; preds = %41
  tail call void @lean_dec_ref_cold(ptr noundef nonnull %8) #11
  br label %lean_dec.exit

lean_dec.exit:                                    ; preds = %42, %41, %39, %lean_inc.exit17
  %43 = ptrtoint ptr %5 to i64
  %44 = and i64 %43, 1
  %.not31 = icmp eq i64 %44, 0
  br i1 %.not31, label %45, label %lean_inc.exit

45:                                               ; preds = %lean_dec.exit
  %.val.i26 = load i32, ptr %5, align 4, !tbaa !4
  %46 = icmp sgt i32 %.val.i26, 0
  br i1 %46, label %47, label %49, !prof !9

47:                                               ; preds = %45
  %48 = add nuw i32 %.val.i26, 1
  store i32 %48, ptr %5, align 4, !tbaa !4
  br label %lean_inc.exit

49:                                               ; preds = %45
  %.not.i27 = icmp eq i32 %.val.i26, 0
  br i1 %.not.i27, label %lean_inc.exit, label %50

50:                                               ; preds = %49
  tail call void @lean_inc_ref_cold(ptr noundef nonnull %5) #11
  br label %lean_inc.exit

lean_inc.exit:                                    ; preds = %50, %49, %47, %lean_dec.exit
  %51 = tail call ptr @lean_apply_1(ptr noundef %3, ptr noundef %5) #11
  tail call void @lean_inc_heartbeat() #11
  %52 = tail call noalias ptr @mi_malloc_small(i64 noundef 40) #11
  %53 = icmp eq ptr %52, null
  br i1 %53, label %54, label %lean_alloc_closure.exit

54:                                               ; preds = %lean_inc.exit
  tail call void @lean_internal_panic_out_of_memory() #12
  unreachable

lean_alloc_closure.exit:                          ; preds = %lean_inc.exit
  %55 = getelementptr inbounds nuw i8, ptr %52, i64 4
  store i32 1, ptr %52, align 4, !tbaa !4
  store i32 -184549336, ptr %55, align 4
  %56 = getelementptr inbounds nuw i8, ptr %52, i64 8
  store ptr @l_ReaderT_instApplicativeOfMonad___rarg___lambda__1___boxed, ptr %56, align 8, !tbaa !10
  %57 = getelementptr inbounds nuw i8, ptr %52, i64 16
  store i16 3, ptr %57, align 8, !tbaa !12
  %58 = getelementptr inbounds nuw i8, ptr %52, i64 18
  store i16 2, ptr %58, align 2, !tbaa !12
  %59 = getelementptr inbounds nuw i8, ptr %52, i64 24
  store ptr %4, ptr %59, align 8, !tbaa !10
  %60 = getelementptr inbounds nuw i8, ptr %52, i64 32
  store ptr %5, ptr %60, align 8, !tbaa !10
  %61 = tail call ptr @lean_apply_4(ptr noundef %27, ptr noundef nonnull inttoptr (i64 1 to ptr), ptr noundef nonnull inttoptr (i64 1 to ptr), ptr noundef %51, ptr noundef nonnull %52) #11
  ret ptr %61
}